(dp1
S'output'
p2
S'missing "pass" in view'
p3
sS'layer'
p4
S'ParserContainer'
p5
sS'code'
p6
S'response.write(\'\\n\', escape=False)\nresponse.write(\'<!-- layout para as telas gerais -->\\n<html><head>\\n    <meta charset="utf-8">\\n    <meta http-equiv="X-UA-Compatible" content="IE=edge">\\n    <meta name="viewport" content="width=device-width, initial-scale=1">\\n    <meta name="description" content="">\\n    <meta name="author" content="Matheus Suffi">\\n\\n    <title>Sys Chat</title>\\n\\n    <!-- Carregamento de Js -->\\n    <script type="text/javascript" src="\', escape=False)\nresponse.write(URL(a=\'admin_vpn\', c=\'static\', f=\'bower_components\'))\nresponse.write(\'/jquery/dist/jquery.min.js"></script>\\n    <script type="text/javascript" src="\', escape=False)\nresponse.write(URL(a=\'admin_vpn\', c=\'static\', f=\'bower_components\'))\nresponse.write(\'/bootstrap/dist/js/bootstrap.min.js"></script>\\n    <script type="text/javascript" src="\', escape=False)\nresponse.write(URL(a=\'admin_vpn\', c=\'static\', f=\'bower_components\'))\nresponse.write(\'/metisMenu/dist/metisMenu.min.js"></script>\\n        <script type="text/javascript" src="\', escape=False)\nresponse.write(URL(a=\'teste_chat\', c=\'static\', f=\'js\'))\nresponse.write(\'/web2py.js"></script>\\n    <script type="text/javascript" src="\', escape=False)\nresponse.write(URL(a=\'admin_vpn\', c=\'static\', f=\'dist\'))\nresponse.write(\'/js/sb-admin-2.js"></script>\\n\\n    <!-- Carregamento de CSS -->\\n    <link type="text/css" href="\', escape=False)\nresponse.write(URL(a=\'admin_vpn\', c=\'static\', f=\'bower_components\'))\nresponse.write(\'/bootstrap/dist/css/bootstrap.min.css" rel="stylesheet">\\n    <link type="text/css" href="\', escape=False)\nresponse.write(URL(a=\'admin_vpn\', c=\'static\', f=\'bower_components\'))\nresponse.write(\'/metisMenu/dist/metisMenu.min.css" rel="stylesheet">\\n    <link type="text/css" href="\', escape=False)\nresponse.write(URL(a=\'admin_vpn\', c=\'static\', f=\'dist\'))\nresponse.write(\'/css/sb-admin-2.css" rel="stylesheet">\\n    <link type="text/css" href="\', escape=False)\nresponse.write(URL(a=\'admin_vpn\', c=\'static\', f=\'bower_components\'))\nresponse.write(\'/font-awesome/css/font-awesome.min.css" rel="stylesheet" type="text/css">\\n</head>\\n\\n<body>\\n\\n    <div class="wrapper">\\n        <nav class="navbar navbar-default navbar-static-top" role="navigation" style="margin-bottom: 0">\\n            <div class="navbar-header">\\n                <button type="button" class="navbar-toggle" data-toggle="collapse" data-target=".navbar-collapse">\\n                    <span class="sr-only">teste socket</span>\\n                    <span class="icon-bar"></span>\\n                    <span class="icon-bar"></span>\\n                    <span class="icon-bar"></span>\\n                </button>\\n                <a class="navbar-brand" href="index.html">A Rede Social</a>\\n            </div>\\n            <ul class="nav navbar-top-links navbar-right">\\n                <li class="dropdown">\\n                    <a class="dropdown-toggle" data-toggle="dropdown" href="#">\\n                        <i class="fa fa-user fa-fw"></i>  <i class="fa fa-caret-down">\\n                        \', escape=False)\nresponse.write(auth.user.first_name)\nresponse.write(\'\\n                        </i>\\n                    </a>\\n                    <ul class="dropdown-menu dropdown-user"> \\n                        <li><a href="\', escape=False)\nresponse.write(URL(\'logout\'))\nresponse.write(\'"><i class="fa fa-sign-out fa-fw"></i>Logout</a>\\n                        </li>\\n                    </ul>\\n                    <!-- /.dropdown-user -->\\n                </li>\\n                <!-- /.dropdown -->\\n            </ul>\\n            <!-- /.navbar-top-links -->\\n\\n            \\n            <!-- /.navbar-static-side -->\\n        </nav>\\n\\n    </div>\\n        <div class="container">\\n            <div id="modal">\\n\\n            </div>\\n            \', escape=False)\nresponse.write(\'\\n\\n\\n<div class="row"\\n<div class="col-lg-12">\\n                    <h1 class="page-header">Dashboard</h1>\\n                </div>\\n<div class="col-lg-8">\\n<div class="panel panel-default">\\n                        <div class="panel-heading">\\n                            <i class="fa fa-clock-o fa-fw"></i> Linha do Tempo\\n                        </div>\\n                        <!-- /.panel-heading -->\\n                        <div class="panel-body">\\n                            <div class="form-group">\\n                                            <label>No que voc\\xc3\\xaa est\\xc3\\xa1 pensando?</label>\\n                                            <textarea class="form-control" rows="3"></textarea>\\n                                        </div>\\n                                        <div style="float:right !important;">\\n                                            <button type="button" class="btn btn-outline btn-primary btn-sm">Publicar</button>\\n                                        </div>\\n                                        <br>\\n                                        <hr>\\n                                        <br>\\n\\n                                        \', escape=False)\nfor item in mensagens:\n    response.write(\'\\n                            <ul class="timeline">\\n                                <li>\\n                                    <div class="timeline-badge"><i class="fa fa-check"></i>\\n                                    </div>\\n                                    <div class="timeline-panel">\\n                                        <div class="timeline-heading">\\n                                            \', escape=False)\n    if item.id_user != auth.user.id:\n        response.write(\'\\n                                            <h4 class="timeline-title">\', escape=False)\n        response.write(item.nome)\n        response.write(\' Comentou uma Publica\\xc3\\xa7\\xc3\\xa3o</h4>\\n                                            \', escape=False)\n    else:\n        response.write(\'\\n                                            <h4 class="timeline-title">Voc\\xc3\\xaa Comentou uma Publica\\xc3\\xa7\\xc3\\xa3o</h4>\\n                                            \', escape=False)\n        pass\n    response.write(\'\\n                                            <p><small class="text-muted"><i class="fa fa-clock-o"></i> \', escape=False)\n    response.write(prettydate(item.data))\n    response.write(\'</small>\\n                                            </p>\\n                                        </div>\\n                                        <div class="timeline-body">\\n                                            <p>\', escape=False)\n    response.write(item.mensagem)\n    response.write(\'</p>\\n                                        </div>\\n                                    </div>\\n                                </li>\\n                                <div class="timeline-badge danger"><i class="fa fa-bomb"></i>\\n                                    </div>\\n                                    <div class="timeline-panel">\\n                                        <div class="timeline-heading">\\n                                            <h4 class="timeline-title">Lorem ipsum dolor</h4>\\n                                        </div>\\n                                        <div class="timeline-body">\\n                                            <p>Lorem ipsum dolor sit amet, consectetur adipisicing elit. Repellendus numquam facilis enim eaque, tenetur nam id qui vel velit similique nihil iure molestias aliquam, voluptatem totam quaerat, magni commodi quisquam.</p>\\n                                        </div>\\n                                    </div>\\n                                </li>\\n                                <li class="timeline-inverted">\\n                                    <div class="timeline-panel">\\n                                        <div class="timeline-heading">\\n                                            <h4 class="timeline-title">Lorem ipsum dolor</h4>\\n                                        </div>\\n                                        <div class="timeline-body">\\n                                            <p>Lorem ipsum dolor sit amet, consectetur adipisicing elit. Voluptates est quaerat asperiores sapiente, eligendi, nihil. Itaque quos, alias sapiente rerum quas odit! Aperiam officiis quidem delectus libero, omnis ut debitis!</p>\\n                                        </div>\\n                                    </div>\\n                                </li>\\n                                <li>\\n                                    <div class="timeline-badge info"><i class="fa fa-envelope-o"></i>\\n                                    </div>\\n                                    <div class="timeline-panel">\\n                                        <div class="timeline-heading">\\n                                            <h4 class="timeline-title">Lorem ipsum dolor</h4>\\n                                        </div>\\n                                        <div class="timeline-body">\\n                                            <p>Lorem ipsum dolor sit amet, consectetur adipisicing elit. Nobis minus modi quam ipsum alias at est molestiae excepturi delectus nesciunt, quibusdam debitis amet, beatae consequuntur impedit nulla qui! Laborum, atque.</p>\\n                                            <hr>\\n                                            \\n                                    </div>\\n                                </li>\\n                                \\n                            </ul>\\n                        </div>\\n                        <!-- /.panel-body -->\\n                    </div>\\n</div>\\n<div class="col-lg-4">\\n<div class="panel panel-default">\\n<div id=\\\'usuario_online\\\'></div>          \\n<div id=\\\'get_chat\\\'></div> \\n\\n\\n                        <!-- /.panel-footer -->\\n                    </div>\\n\\n\\n<script>\\n$(document).ready(function(){\\n\\n    $.get("\', escape=False)\n    response.write(URL(a=\'teste_chat\', c=\'home\', f=\'usuarios_online\'))\n    response.write(\'",function(data){\\n        $(\\\'#usuario_online\\\').html(data);\\n    });\\n    var data;\\n    $.web2py.web2py_websocket(\\\'ws://localhost:8888/realtime/conversa\\\',function(){\\n\\n        $.get("\', escape=False)\n    response.write(URL(a=\'teste_chat\', c=\'home\', f=\'usuarios_online\'))\n    response.write(\'",function(data){\\n            $(\\\'#usuario_online\\\').html(data);\\n        });\\n    });\\n\\n});\\n\\n</script>\', escape=False)\n    response.write(\'     \\n        </div>\\n\\n\\n</body></html>\\n\\n<script>\\n    function profile(){\\n        $.get("\', escape=False)\n    response.write(URL(\'profile\'))\n    response.write(\'" , function(data){\\n            $(\\\'#modal\\\').html(data)\\n        });\\n    }\\n</script>\\n\', escape=False)'
p7
sS'snapshot'
p8
(dp9
S'exception'
p10
(dp11
S'__module__'
p12
S"'gluon.rocket'"
p13
sS'__getslice__'
p14
S"<method-wrapper '__getslice__' of SocketClosed object>"
p15
sS'__str__'
p16
S"<method-wrapper '__str__' of SocketClosed object>"
p17
sS'__reduce__'
p18
S'<built-in method __reduce__ of SocketClosed object>'
p19
sS'__dict__'
p20
S'{}'
p21
sS'__sizeof__'
p22
S'<built-in method __sizeof__ of SocketClosed object>'
p23
sS'__weakref__'
p24
S'None'
p25
sS'__init__'
p26
S"<method-wrapper '__init__' of SocketClosed object>"
p27
sS'__setattr__'
p28
S"<method-wrapper '__setattr__' of SocketClosed object>"
p29
sS'__reduce_ex__'
p30
S'<built-in method __reduce_ex__ of SocketClosed object>'
p31
sS'__new__'
p32
S'<built-in method __new__ of type object>'
p33
sS'__format__'
p34
S'<built-in method __format__ of SocketClosed object>'
p35
sS'__class__'
p36
S"<class 'gluon.rocket.SocketClosed'>"
p37
sS'__doc__'
p38
S"'Exception for when a socket is closed by the client.'"
p39
sS'__getitem__'
p40
S"<method-wrapper '__getitem__' of SocketClosed object>"
p41
sS'__setstate__'
p42
S'<built-in method __setstate__ of SocketClosed object>'
p43
sS'__getattribute__'
p44
S"<method-wrapper '__getattribute__' of SocketClosed object>"
p45
sS'args'
p46
S"('Client closed socket.',)"
p47
sS'__subclasshook__'
p48
S'<built-in method __subclasshook__ of type object>'
p49
sS'__unicode__'
p50
S'<built-in method __unicode__ of SocketClosed object>'
p51
sS'__delattr__'
p52
S"<method-wrapper '__delattr__' of SocketClosed object>"
p53
sS'__repr__'
p54
S"<method-wrapper '__repr__' of SocketClosed object>"
p55
sS'__hash__'
p56
S"<method-wrapper '__hash__' of SocketClosed object>"
p57
ssS'evalue'
p58
S'Client closed socket.'
p59
sS'frames'
p60
(lp61
(dp62
S'file'
p63
S'/var/www/web2py/gluon/rocket.py'
p64
sS'dump'
p65
(dp66
S'self'
p67
S'<WSGIWorker(Thread-5, started daemon 139645170128640)>'
p68
sS'conn'
p69
S'<gluon.rocket.Connection object>'
p70
sS'self.run_app'
p71
S'<bound method WSGIWorker.run_app of <WSGIWorker(Thread-5, started daemon 139645170128640)>>'
p72
ssS'lnum'
p73
I1337
sS'lines'
p74
(dp75
I1332
S'            # Enter connection serve loop'
p76
sI1333
S'            while True:'
p77
sI1334
S'                if __debug__:'
p78
sI1335
S"                    self.err_log.debug('Serving a request')"
p79
sI1336
S'                try:'
p80
sI1337
S'                    self.run_app(conn)'
p81
sI1338
S'                except:'
p82
sI1339
S'                    exc = sys.exc_info()'
p83
sI1340
S'                    handled = self._handleError(*exc)'
p84
sI1341
S'                    if handled:'
p85
ssS'call'
p86
S'(self=<WSGIWorker(Thread-5, started daemon 139645170128640)>)'
p87
sS'func'
p88
S'run'
p89
sa(dp90
g63
S'/var/www/web2py/gluon/rocket.py'
p91
sg65
(dp92
S'self'
p93
S'<WSGIWorker(Thread-5, started daemon 139645170128640)>'
p94
sS'self.environ'
p95
S"{'HTTP_ACCEPT': 'text/html,application/xhtml+xml,application/xml;q=0.9,image/webp,*/*;q=0.8', 'HTTP_ACCEPT_ENCODING': 'gzip, deflate, sdch', 'HTTP_ACCEPT_LANGUAGE': 'pt-BR,pt;q=0.8,en-US;q=0.6,en;q=0.4', 'HTTP_CACHE_CONTROL': 'max-age=0', 'HTTP_CONNECTION': 'keep-alive', 'HTTP_COOKIE': 'PPA_ID=ukiba6f8biee6e12kq0nd0lgd2; webfx-tree-co...at=127.0.0.1-430c878c-e44e-49eb-9f49-41cdaf5f2f67', 'HTTP_HOST': 'localhost:8000', 'HTTP_REFERER': 'http://localhost:8000/teste_chat/home/index', 'HTTP_USER_AGENT': 'Mozilla/5.0 (X11; Linux x86_64) AppleWebKit/537....ML, like Gecko) Chrome/39.0.2171.95 Safari/537.36', 'PATH_INFO': '/teste_chat/home/index', ...}"
p96
sS'sock_file'
p97
S'<socket._fileobject object>'
p98
sS'environ'
p99
S'undefined'
p100
sS'self.build_environ'
p101
S'<bound method WSGIWorker.build_environ of <WSGIWorker(Thread-5, started daemon 139645170128640)>>'
p102
sS'conn'
p103
S'<gluon.rocket.Connection object>'
p104
ssg73
I1830
sg74
(dp105
I1825
S'        else:'
p106
sI1826
S'            sock_file = conn.makefile(BUF_SIZE)'
p107
sI1827
S''
sI1828
S'        try:'
p108
sI1829
S'            # Read the headers and build our WSGI environment'
p109
sI1830
S'            self.environ = environ = self.build_environ(sock_file, conn)'
p110
sI1831
S''
sI1832
S'            # Handle 100 Continue'
p111
sI1833
S"            if environ.get('HTTP_EXPECT', '') == '100-continue':"
p112
sI1834
S"                res = environ['SERVER_PROTOCOL'] + ' 100 Continue\\r\\n\\r\\n'"
p113
ssg86
S'(self=<WSGIWorker(Thread-5, started daemon 139645170128640)>, conn=<gluon.rocket.Connection object>)'
p114
sg88
S'run_app'
p115
sa(dp116
g63
S'/var/www/web2py/gluon/rocket.py'
p117
sg65
(dp118
S'sock_file'
p119
S'<socket._fileobject object>'
p120
sS'self.read_request_line'
p121
S'<bound method WSGIWorker.read_request_line of <W...orker(Thread-5, started daemon 139645170128640)>>'
p122
sS'self'
p123
S'<WSGIWorker(Thread-5, started daemon 139645170128640)>'
p124
sS'request'
p125
g100
ssg73
I1650
sg74
(dp126
I1645
S'                                      "wsgiorg.futures": executor.futures})'
p127
sI1646
S''
sI1647
S'    def build_environ(self, sock_file, conn):'
p128
sI1648
S'        """ Build the execution environment. """'
p129
sI1649
S'        # Grab the request line'
p130
sI1650
S'        request = self.read_request_line(sock_file)'
p131
sI1651
S''
sI1652
S'        # Copy the Base Environment'
p132
sI1653
S'        environ = self.base_environ.copy()'
p133
sI1654
S''
ssg86
S'(self=<WSGIWorker(Thread-5, started daemon 139645170128640)>, sock_file=<socket._fileobject object>, conn=<gluon.rocket.Connection object>)'
p134
sg88
S'build_environ'
p135
sa(dp136
g63
S'/var/www/web2py/gluon/rocket.py'
p137
sg65
(dp138
S'global SocketClosed'
p139
S"<class 'gluon.rocket.SocketClosed'>"
p140
ssg73
I1413
sg74
(dp141
I1408
S''
sI1409
S'        if not d:'
p142
sI1410
S'            if __debug__:'
p143
sI1411
S'                self.err_log.debug('
p144
sI1412
S"                    'Client did not send a recognizable request.')"
p145
sI1413
S"            raise SocketClosed('Client closed socket.')"
p146
sI1414
S''
sI1415
S'        self.request_line = d'
p147
sI1416
S''
sI1417
S"        # NOTE: I've replaced the traditional method of procedurally breaking"
p148
ssg86
S'(self=<WSGIWorker(Thread-5, started daemon 139645170128640)>, sock_file=<socket._fileobject object>)'
p149
sg88
S'read_request_line'
p150
sasS'pyver'
p151
S'Python 2.7.6: /usr/bin/python (prefix: /usr)'
p152
sS'etype'
p153
S"<class 'gluon.rocket.SocketClosed'>"
p154
sS'date'
p155
S'Tue Apr 14 14:30:28 2015'
p156
sS'locals'
p157
(dp158
S'sock_file'
p159
S'<socket._fileobject object>'
p160
sS'self'
p161
S'<WSGIWorker(Thread-5, started daemon 139645170128640)>'
p162
sS'd'
S"''"
p163
sssS'traceback'
p164
S'Traceback (most recent call last):\n  File "/var/www/web2py/gluon/rocket.py", line 1337, in run\n    self.run_app(conn)\n  File "/var/www/web2py/gluon/rocket.py", line 1830, in run_app\n    self.environ = environ = self.build_environ(sock_file, conn)\n  File "/var/www/web2py/gluon/rocket.py", line 1650, in build_environ\n    request = self.read_request_line(sock_file)\n  File "/var/www/web2py/gluon/rocket.py", line 1413, in read_request_line\n    raise SocketClosed(\'Client closed socket.\')\nSocketClosed: Client closed socket.\n'
p165
s.