(dp1
S'output'
p2
S"<type 'exceptions.IOError'> ('http error', 401, 'Unauthorized', <httplib.HTTPMessage instance at 0x7f01798d41b8>)"
p3
sS'layer'
p4
S'/var/www/web2py/applications/teste_chat/controllers/home.py'
p5
sS'code'
p6
S'# -*- coding: utf-8 -*-\nfrom gluon.contrib.websocket_messaging import websocket_send\n\n@auth.requires_login()\ndef index():\n\tuser_ativo = db(db.ativo.nome == auth.user.first_name).select().as_list()\n\tif user_ativo == []:\n\t\tdb.ativo.insert(id_user=auth.user.id,nome=auth.user.first_name,status=\'Disponivel\')\n\n\tjs = "$.get(\'{{=URL(a=\'teste_chat\', c=\'home\', f=\'usuarios_online\')}}\',function(data){$(\'#usuario_online\').html(data);});"\n\tsession.usuario_logado = []\n\tsession.usuario_logado = [auth.user.first_name]\n\tsession.usuario_logado += [auth.user.id]\n\twebsocket_send(\'http://127.0.0.1:8888\',js,\'chat\',\'conversa\')\n\n\treturn response.render(\'home/index.html\')\n\ndef login():\n\tif auth.user is None:\n\t\tform = auth.login()\n\t\tform.element(_name=\'email\')[\'_class\'] = "form-control"\n\t\tform.element(_name=\'password\')[\'_class\'] = "form-control"\n\t\tform.element(_name=\'email\')[\'_placeholder\'] = \'E-mail\'\n\t\tform.element(_name=\'password\')[\'_placeholder\'] = \'Senha\'\n\t\tform.element(_type=\'submit\')[\'_class\'] = "btn btn-outline btn-primary btn-lg btn-block"\n\t\treturn response.render(\'home/login.html\', form=form)\n\telse:\n\t\treturn redirect(URL(\'index\'))\n\ndef registro():\n\treturn auth.register()\n\n@auth.requires_login()\ndef usuarios_online():\n\tativos = db(db.ativo.nome != auth.user.first_name).select()\n\treturn response.render(\'sub_view/usuarios_online.html\',ativos=ativos)\n@auth.requires_login()\ndef get_chat():\n\tchat = db(db.chat.id_user == auth.user.id).select()\n\treturn response.render(\'sub_view/chat.html\',chat=chat)\n\n@auth.requires_login()\ndef logout():\n\tdb(db.ativo.id_user == auth.user.id).delete()\n\tjs = "$.get(\'{{=URL(a=\'teste_chat\', c=\'home\', f=\'usuarios_online\')}}\',function(data){$(\'#usuario_online\').html(data);});"\n\twebsocket_send(\'http://127.0.0.1:8888\',\'chat\',\'conversa\')\n\tauth.logout()\ndef teste():\n\treturn response.render(\'home/teste.html\',teste=auth.user)\n@auth.requires_login()\ndef retira_usuario():\n\tquery = (db.ativo.nome == auth.user.first_name)\n\tdb(query).delete()\n\tativos = db(db.ativo.nome != auth.user.first_name).select()\n\treturn response.render(\'sub_view/usuarios_online.html\',ativos=ativos)\n@auth.requires_login()\ndef nova_publicacao():\n\timport datetime\n\tmensagem = request.vars[\'mensagem\']\n\tmensagens = db.mensagem.insert(nome=auth.user.first_name,mensagem=mensagem,data=datetime.datetime.now())\n\twebsocket_send(\'http://127.0.0.1:8888\',\'chat\',\'conversa\')\ndef lista_publicacao():\n\tmensagens = db(db.mensagem).select()\n\treturn response.render(\'sub_view/linha_tempo.html\',mensagens=mensagens)\n\nresponse._vars=response._caller(nova_publicacao)\n'
p7
sS'snapshot'
p8
(dp9
sS'traceback'
p10
S'Traceback (most recent call last):\n  File "/var/www/web2py/gluon/restricted.py", line 227, in restricted\n    exec ccode in environment\n  File "/var/www/web2py/applications/teste_chat/controllers/home.py", line 66, in <module>\n  File "/var/www/web2py/gluon/globals.py", line 393, in <lambda>\n    self._caller = lambda f: f()\n  File "/var/www/web2py/gluon/tools.py", line 3440, in f\n    return action(*a, **b)\n  File "/var/www/web2py/applications/teste_chat/controllers/home.py", line 61, in nova_publicacao\n    websocket_send(\'http://127.0.0.1:8888\',\'chat\',\'conversa\')\n  File "/var/www/web2py/gluon/contrib/websocket_messaging.py", line 104, in websocket_send\n    f = urllib.urlopen(url, params)\n  File "/usr/lib/python2.7/urllib.py", line 89, in urlopen\n    return opener.open(url, data)\n  File "/usr/lib/python2.7/urllib.py", line 210, in open\n    return getattr(self, name)(url, data)\n  File "/usr/lib/python2.7/urllib.py", line 361, in open_http\n    return self.http_error(url, fp, errcode, errmsg, headers, data)\n  File "/usr/lib/python2.7/urllib.py", line 374, in http_error\n    result = method(url, fp, errcode, errmsg, headers, data)\n  File "/usr/lib/python2.7/urllib.py", line 683, in http_error_401\n    errcode, errmsg, headers)\n  File "/usr/lib/python2.7/urllib.py", line 381, in http_error_default\n    raise IOError, (\'http error\', errcode, errmsg, headers)\nIOError: (\'http error\', 401, \'Unauthorized\', <httplib.HTTPMessage instance at 0x7f01798d41b8>)\n'
p11
s.